target datalayout = "e-m:e-p270:32:32-p271:32:32-p272:64:64-i64:64-i128:128-f80:128-n8:16:32:64-S128"
target triple = "x86_64-pc-linux-gnu"

%class.SamplePriorityQueue = type { ptr, i64, i32, i64 }
%class.ObjectSample = type <{ ptr, ptr, %class.RefCountHandle, %class.RefCountHandle, %class.RefCountHandle, %class.WeakHandle, %class.TimeInstant, i64, i64, i64, i64, i64, i64, i32, i8, [3 x i8] }>
%class.RefCountHandle = type { ptr }
%class.WeakHandle = type { ptr }
%class.TimeInstant = type { %class.CompositeCounterRepresentation }
%class.CompositeCounterRepresentation = type { %class.Representation }
%class.Representation = type { %class.PairRep }
%class.PairRep = type { i64, i64 }

; Function Attrs: mustprogress nounwind uwtable
define hidden void @_ZN19SamplePriorityQueue4swapEii(ptr noundef nonnull align 8 dereferenceable(32) %0, i32 noundef %1, i32 noundef %2) #1 align 2 {
  %4 = alloca ptr, align 8
  %5 = alloca i32, align 4
  %6 = alloca i32, align 4
  %7 = alloca ptr, align 8
  store ptr %0, ptr %4, align 8
  store i32 %1, ptr %5, align 4
  store i32 %2, ptr %6, align 4
  %8 = load ptr, ptr %4, align 8
  %9 = getelementptr inbounds %class.SamplePriorityQueue, ptr %8, i32 0, i32 0
  %10 = load ptr, ptr %9, align 8
  %11 = load i32, ptr %5, align 4
  %12 = sext i32 %11 to i64
  %13 = getelementptr inbounds ptr, ptr %10, i64 %12
  %14 = load ptr, ptr %13, align 8
  store ptr %14, ptr %7, align 8
  %15 = getelementptr inbounds %class.SamplePriorityQueue, ptr %8, i32 0, i32 0
  %16 = load ptr, ptr %15, align 8
  %17 = load i32, ptr %6, align 4
  %18 = sext i32 %17 to i64
  %19 = getelementptr inbounds ptr, ptr %16, i64 %18
  %20 = load ptr, ptr %19, align 8
  %21 = getelementptr inbounds %class.SamplePriorityQueue, ptr %8, i32 0, i32 0
  %22 = load ptr, ptr %21, align 8
  %23 = load i32, ptr %5, align 4
  %24 = sext i32 %23 to i64
  %25 = getelementptr inbounds ptr, ptr %22, i64 %24
  store ptr %20, ptr %25, align 8
  %26 = load ptr, ptr %7, align 8
  %27 = getelementptr inbounds %class.SamplePriorityQueue, ptr %8, i32 0, i32 0
  %28 = load ptr, ptr %27, align 8
  %29 = load i32, ptr %6, align 4
  %30 = sext i32 %29 to i64
  %31 = getelementptr inbounds ptr, ptr %28, i64 %30
  store ptr %26, ptr %31, align 8
  %32 = getelementptr inbounds %class.SamplePriorityQueue, ptr %8, i32 0, i32 0
  %33 = load ptr, ptr %32, align 8
  %34 = load i32, ptr %5, align 4
  %35 = sext i32 %34 to i64
  %36 = getelementptr inbounds ptr, ptr %33, i64 %35
  %37 = load ptr, ptr %36, align 8
  %38 = load i32, ptr %5, align 4
  call void @_ZN12ObjectSample9set_indexEi(ptr noundef nonnull align 8 dereferenceable(117) %37, i32 noundef %38)
  %39 = getelementptr inbounds %class.SamplePriorityQueue, ptr %8, i32 0, i32 0
  %40 = load ptr, ptr %39, align 8
  %41 = load i32, ptr %6, align 4
  %42 = sext i32 %41 to i64
  %43 = getelementptr inbounds ptr, ptr %40, i64 %42
  %44 = load ptr, ptr %43, align 8
  %45 = load i32, ptr %6, align 4
  call void @_ZN12ObjectSample9set_indexEi(ptr noundef nonnull align 8 dereferenceable(117) %44, i32 noundef %45)
  ret void
}

; Function Attrs: mustprogress nounwind uwtable
define internal noundef i32 @_ZL6parenti(i32 noundef %0) #1 {
  %2 = alloca i32, align 4
  store i32 %0, ptr %2, align 4
  %3 = load i32, ptr %2, align 4
  %4 = sub nsw i32 %3, 1
  %5 = sdiv i32 %4, 2
  ret i32 %5
}

; Function Attrs: mustprogress nounwind uwtable
define linkonce_odr hidden noundef i64 @_ZNK12ObjectSample4spanEv(ptr noundef nonnull align 8 dereferenceable(117) %0) #1 comdat align 2 {
  %2 = alloca ptr, align 8
  store ptr %0, ptr %2, align 8
  %3 = load ptr, ptr %2, align 8
  %4 = getelementptr inbounds %class.ObjectSample, ptr %3, i32 0, i32 10
  %5 = load i64, ptr %4, align 8
  ret i64 %5
}

; Function Attrs: mustprogress nounwind uwtable
define hidden void @_ZN19SamplePriorityQueue6moveUpEi(ptr noundef nonnull align 8 dereferenceable(32) %0, i32 noundef %1) #1 align 2 {
  %3 = alloca ptr, align 8
  %4 = alloca i32, align 4
  %5 = alloca i32, align 4
  store ptr %0, ptr %3, align 8
  store i32 %1, ptr %4, align 4
  %6 = load ptr, ptr %3, align 8
  %7 = load i32, ptr %4, align 4
  %8 = call noundef i32 @_ZL6parenti(i32 noundef %7)
  store i32 %8, ptr %5, align 4
  br label %9

9:                                                ; preds = %30, %2
  %10 = load i32, ptr %4, align 4
  %11 = icmp sgt i32 %10, 0
  br i1 %11, label %12, label %28

12:                                               ; preds = %9
  %13 = getelementptr inbounds %class.SamplePriorityQueue, ptr %6, i32 0, i32 0
  %14 = load ptr, ptr %13, align 8
  %15 = load i32, ptr %4, align 4
  %16 = sext i32 %15 to i64
  %17 = getelementptr inbounds ptr, ptr %14, i64 %16
  %18 = load ptr, ptr %17, align 8
  %19 = call noundef i64 @_ZNK12ObjectSample4spanEv(ptr noundef nonnull align 8 dereferenceable(117) %18)
  %20 = getelementptr inbounds %class.SamplePriorityQueue, ptr %6, i32 0, i32 0
  %21 = load ptr, ptr %20, align 8
  %22 = load i32, ptr %5, align 4
  %23 = sext i32 %22 to i64
  %24 = getelementptr inbounds ptr, ptr %21, i64 %23
  %25 = load ptr, ptr %24, align 8
  %26 = call noundef i64 @_ZNK12ObjectSample4spanEv(ptr noundef nonnull align 8 dereferenceable(117) %25)
  %27 = icmp ult i64 %19, %26
  br label %28

28:                                               ; preds = %12, %9
  %29 = phi i1 [ false, %9 ], [ %27, %12 ]
  br i1 %29, label %30, label %36

30:                                               ; preds = %28
  %31 = load i32, ptr %4, align 4
  %32 = load i32, ptr %5, align 4
  call void @_ZN19SamplePriorityQueue4swapEii(ptr noundef nonnull align 8 dereferenceable(32) %6, i32 noundef %31, i32 noundef %32)
  %33 = load i32, ptr %5, align 4
  store i32 %33, ptr %4, align 4
  %34 = load i32, ptr %4, align 4
  %35 = call noundef i32 @_ZL6parenti(i32 noundef %34)
  store i32 %35, ptr %5, align 4
  br label %9, !llvm.loop !6

36:                                               ; preds = %28
  ret void
}

; Function Attrs: mustprogress nounwind uwtable
define linkonce_odr hidden void @_ZN12ObjectSample9set_indexEi(ptr noundef nonnull align 8 dereferenceable(117) %0, i32 noundef %1) #1 comdat align 2 {
  %3 = alloca ptr, align 8
  %4 = alloca i32, align 4
  store ptr %0, ptr %3, align 8
  store i32 %1, ptr %4, align 4
  %5 = load ptr, ptr %3, align 8
  %6 = load i32, ptr %4, align 4
  %7 = getelementptr inbounds %class.ObjectSample, ptr %5, i32 0, i32 13
  store i32 %6, ptr %7, align 8
  ret void
}

; Function Attrs: mustprogress nounwind uwtable
define hidden void @_ZN19SamplePriorityQueue4pushEP12ObjectSample(ptr noundef nonnull align 8 dereferenceable(32) %0, ptr noundef %1) #1 align 2 {
  %3 = alloca ptr, align 8
  %4 = alloca ptr, align 8
  store ptr %0, ptr %3, align 8
  store ptr %1, ptr %4, align 8
  %5 = load ptr, ptr %3, align 8
  %6 = load ptr, ptr %4, align 8
  %7 = getelementptr inbounds %class.SamplePriorityQueue, ptr %5, i32 0, i32 0
  %8 = load ptr, ptr %7, align 8
  %9 = getelementptr inbounds %class.SamplePriorityQueue, ptr %5, i32 0, i32 2
  %10 = load i32, ptr %9, align 8
  %11 = sext i32 %10 to i64
  %12 = getelementptr inbounds ptr, ptr %8, i64 %11
  store ptr %6, ptr %12, align 8
  %13 = getelementptr inbounds %class.SamplePriorityQueue, ptr %5, i32 0, i32 0
  %14 = load ptr, ptr %13, align 8
  %15 = getelementptr inbounds %class.SamplePriorityQueue, ptr %5, i32 0, i32 2
  %16 = load i32, ptr %15, align 8
  %17 = sext i32 %16 to i64
  %18 = getelementptr inbounds ptr, ptr %14, i64 %17
  %19 = load ptr, ptr %18, align 8
  %20 = getelementptr inbounds %class.SamplePriorityQueue, ptr %5, i32 0, i32 2
  %21 = load i32, ptr %20, align 8
  call void @_ZN12ObjectSample9set_indexEi(ptr noundef nonnull align 8 dereferenceable(117) %19, i32 noundef %21)
  %22 = getelementptr inbounds %class.SamplePriorityQueue, ptr %5, i32 0, i32 2
  %23 = load i32, ptr %22, align 8
  %24 = add nsw i32 %23, 1
  store i32 %24, ptr %22, align 8
  %25 = getelementptr inbounds %class.SamplePriorityQueue, ptr %5, i32 0, i32 2
  %26 = load i32, ptr %25, align 8
  %27 = sub nsw i32 %26, 1
  call void @_ZN19SamplePriorityQueue6moveUpEi(ptr noundef nonnull align 8 dereferenceable(32) %5, i32 noundef %27)
  %28 = load ptr, ptr %4, align 8
  %29 = call noundef i64 @_ZNK12ObjectSample4spanEv(ptr noundef nonnull align 8 dereferenceable(117) %28)
  %30 = getelementptr inbounds %class.SamplePriorityQueue, ptr %5, i32 0, i32 3
  %31 = load i64, ptr %30, align 8
  %32 = add i64 %31, %29
  store i64 %32, ptr %30, align 8
  ret void
}