; Function Attrs: mustprogress nofree norecurse nosync nounwind memory(readwrite, inaccessiblemem: none) uwtable
define hidden void @_ZN19SamplePriorityQueue4pushEP12ObjectSample(ptr nocapture noundef nonnull align 8 dereferenceable(32) %0, ptr noundef %1) local_unnamed_addr #3 align 2 {
  %3 = load ptr, ptr %0, align 8
  %4 = getelementptr inbounds i8, ptr %0, i64 16
  %5 = load i32, ptr %4, align 8
  %6 = sext i32 %5 to i64
  %7 = getelementptr inbounds ptr, ptr %3, i64 %6
  store ptr %1, ptr %7, align 8
  %8 = load ptr, ptr %0, align 8
  %9 = load i32, ptr %4, align 8
  %10 = sext i32 %9 to i64
  %11 = getelementptr inbounds ptr, ptr %8, i64 %10
  %12 = load ptr, ptr %11, align 8
  %13 = getelementptr inbounds i8, ptr %12, i64 112
  store i32 %9, ptr %13, align 8
  %14 = add nsw i32 %9, 1
  store i32 %14, ptr %4, align 8
  %15 = icmp sgt i32 %9, 0
  br i1 %15, label %.lr.ph.i, label %_ZN19SamplePriorityQueue6moveUpEi.exit

.lr.ph.i:                                         ; preds = %2, %28
  %.0811.i = phi i32 [ %.012.i, %28 ], [ %9, %2 ]
  %.012.in.i = add nsw i32 %.0811.i, -1
  %.012.i = sdiv i32 %.012.in.i, 2
  %16 = load ptr, ptr %0, align 8
  %17 = zext nneg i32 %.0811.i to i64
  %18 = getelementptr inbounds ptr, ptr %16, i64 %17
  %19 = load ptr, ptr %18, align 8
  %20 = getelementptr inbounds i8, ptr %19, i64 88
  %21 = load i64, ptr %20, align 8
  %22 = sext i32 %.012.i to i64
  %23 = getelementptr inbounds ptr, ptr %16, i64 %22
  %24 = load ptr, ptr %23, align 8
  %25 = getelementptr inbounds i8, ptr %24, i64 88
  %26 = load i64, ptr %25, align 8
  %27 = icmp ult i64 %21, %26
  br i1 %27, label %28, label %_ZN19SamplePriorityQueue6moveUpEi.exit

28:                                               ; preds = %.lr.ph.i
  store ptr %24, ptr %18, align 8
  %29 = load ptr, ptr %0, align 8
  %30 = getelementptr inbounds ptr, ptr %29, i64 %22
  store ptr %19, ptr %30, align 8
  %31 = load ptr, ptr %0, align 8
  %32 = getelementptr inbounds ptr, ptr %31, i64 %17
  %33 = load ptr, ptr %32, align 8
  %34 = getelementptr inbounds i8, ptr %33, i64 112
  store i32 %.0811.i, ptr %34, align 8
  %35 = load ptr, ptr %0, align 8
  %36 = getelementptr inbounds ptr, ptr %35, i64 %22
  %37 = load ptr, ptr %36, align 8
  %38 = getelementptr inbounds i8, ptr %37, i64 112
  store i32 %.012.i, ptr %38, align 8
  %39 = icmp sgt i32 %.0811.i, 2
  br i1 %39, label %.lr.ph.i, label %_ZN19SamplePriorityQueue6moveUpEi.exit, !llvm.loop !6

_ZN19SamplePriorityQueue6moveUpEi.exit:           ; preds = %.lr.ph.i, %28, %2
  %40 = getelementptr inbounds i8, ptr %1, i64 88
  %41 = load i64, ptr %40, align 8
  %42 = getelementptr inbounds i8, ptr %0, i64 24
  %43 = load i64, ptr %42, align 8
  %44 = add i64 %43, %41
  store i64 %44, ptr %42, align 8
  ret void
}